target datalayout = "e-m:e-p270:32:32-p271:32:32-p272:64:64-i64:64-i128:128-f80:128-n8:16:32:64-S128"
target triple = "x86_64-pc-linux-gnu"

%struct.opj_mutex_t = type { %union.pthread_mutex_t }
%union.pthread_mutex_t = type { %struct.__pthread_mutex_s }
%struct.__pthread_mutex_s = type { i32, i32, i32, i32, i32, i16, i16, %struct.__pthread_internal_list }
%struct.__pthread_internal_list = type { ptr, ptr }

; Function Attrs: nounwind uwtable
define hidden ptr @opj_mutex_create() #0 {
  %1 = alloca ptr, align 8
  call void @llvm.lifetime.start.p0(i64 8, ptr %1) #4
  %2 = call ptr @opj_calloc(i64 noundef 1, i64 noundef 40)
  store ptr %2, ptr %1, align 8, !tbaa !3
  %3 = load ptr, ptr %1, align 8, !tbaa !3
  %4 = icmp ne ptr %3, null
  br i1 %4, label %5, label %13

5:                                                ; preds = %0
  %6 = load ptr, ptr %1, align 8, !tbaa !3
  %7 = getelementptr inbounds nuw %struct.opj_mutex_t, ptr %6, i32 0, i32 0
  %8 = call i32 @pthread_mutex_init(ptr noundef %7, ptr noundef null) #4
  %9 = icmp ne i32 %8, 0
  br i1 %9, label %10, label %12

10:                                               ; preds = %5
  %11 = load ptr, ptr %1, align 8, !tbaa !3
  call void @opj_free(ptr noundef %11)
  store ptr null, ptr %1, align 8, !tbaa !3
  br label %12

12:                                               ; preds = %10, %5
  br label %13

13:                                               ; preds = %12, %0
  %14 = load ptr, ptr %1, align 8, !tbaa !3
  call void @llvm.lifetime.end.p0(i64 8, ptr %1) #4
  ret ptr %14
}