; Function Attrs: nounwind uwtable
define hidden ptr @opj_mutex_create() local_unnamed_addr #1 {
  %1 = tail call ptr @opj_calloc(i64 noundef 1, i64 noundef 40) #8
  %.not = icmp eq ptr %1, null
  br i1 %.not, label %5, label %2

2:                                                ; preds = %0
  %3 = tail call i32 @pthread_mutex_init(ptr noundef nonnull %1, ptr noundef null) #8
  %.not5 = icmp eq i32 %3, 0
  br i1 %.not5, label %5, label %4

4:                                                ; preds = %2
  tail call void @opj_free(ptr noundef nonnull %1) #8
  br label %5

5:                                                ; preds = %2, %4, %0
  %.0 = phi ptr [ null, %4 ], [ %1, %2 ], [ null, %0 ]
  ret ptr %.0
}